target datalayout = "e-m:e-p270:32:32-p271:32:32-p272:64:64-i64:64-i128:128-f80:128-n8:16:32:64-S128"
target triple = "x86_64-pc-linux-gnu"

%"class.std::__cxx11::basic_string" = type { %"struct.std::__cxx11::basic_string<char>::_Alloc_hider", i64, %union.anon }
%"struct.std::__cxx11::basic_string<char>::_Alloc_hider" = type { ptr }
%union.anon = type { i64, [8 x i8] }
%struct.common_params_sampling = type { i32, i32, i32, i32, i32, float, float, float, float, float, float, float, float, i32, float, float, float, float, float, i32, i32, i32, float, float, float, i8, i8, i8, %"class.std::vector", %"class.std::vector.3", %"class.std::__cxx11::basic_string", i8, %"class.std::vector.8", %"class.std::vector.13", %"class.std::set", %"class.std::vector.21" }
%"class.std::vector" = type { %"struct.std::_Vector_base" }
%"struct.std::_Vector_base" = type { %"struct.std::_Vector_base<std::__cxx11::basic_string<char>, std::allocator<std::__cxx11::basic_string<char>>>::_Vector_impl" }
%"struct.std::_Vector_base<std::__cxx11::basic_string<char>, std::allocator<std::__cxx11::basic_string<char>>>::_Vector_impl" = type { %"struct.std::_Vector_base<std::__cxx11::basic_string<char>, std::allocator<std::__cxx11::basic_string<char>>>::_Vector_impl_data" }
%"struct.std::_Vector_base<std::__cxx11::basic_string<char>, std::allocator<std::__cxx11::basic_string<char>>>::_Vector_impl_data" = type { ptr, ptr, ptr }
%"class.std::vector.3" = type { %"struct.std::_Vector_base.4" }
%"struct.std::_Vector_base.4" = type { %"struct.std::_Vector_base<common_sampler_type, std::allocator<common_sampler_type>>::_Vector_impl" }
%"struct.std::_Vector_base<common_sampler_type, std::allocator<common_sampler_type>>::_Vector_impl" = type { %"struct.std::_Vector_base<common_sampler_type, std::allocator<common_sampler_type>>::_Vector_impl_data" }
%"struct.std::_Vector_base<common_sampler_type, std::allocator<common_sampler_type>>::_Vector_impl_data" = type { ptr, ptr, ptr }
%"class.std::vector.8" = type { %"struct.std::_Vector_base.9" }
%"struct.std::_Vector_base.9" = type { %"struct.std::_Vector_base<common_grammar_trigger, std::allocator<common_grammar_trigger>>::_Vector_impl" }
%"struct.std::_Vector_base<common_grammar_trigger, std::allocator<common_grammar_trigger>>::_Vector_impl" = type { %"struct.std::_Vector_base<common_grammar_trigger, std::allocator<common_grammar_trigger>>::_Vector_impl_data" }
%"struct.std::_Vector_base<common_grammar_trigger, std::allocator<common_grammar_trigger>>::_Vector_impl_data" = type { ptr, ptr, ptr }
%"class.std::vector.13" = type { %"struct.std::_Vector_base.14" }
%"struct.std::_Vector_base.14" = type { %"struct.std::_Vector_base<int, std::allocator<int>>::_Vector_impl" }
%"struct.std::_Vector_base<int, std::allocator<int>>::_Vector_impl" = type { %"struct.std::_Vector_base<int, std::allocator<int>>::_Vector_impl_data" }
%"struct.std::_Vector_base<int, std::allocator<int>>::_Vector_impl_data" = type { ptr, ptr, ptr }
%"class.std::set" = type { %"class.std::_Rb_tree" }
%"class.std::_Rb_tree" = type { %"struct.std::_Rb_tree<int, int, std::_Identity<int>, std::less<int>>::_Rb_tree_impl" }
%"struct.std::_Rb_tree<int, int, std::_Identity<int>, std::less<int>>::_Rb_tree_impl" = type { [8 x i8], %"struct.std::_Rb_tree_header" }
%"struct.std::_Rb_tree_header" = type { %"struct.std::_Rb_tree_node_base", i64 }
%"struct.std::_Rb_tree_node_base" = type { i32, ptr, ptr, ptr }
%"class.std::vector.21" = type { %"struct.std::_Vector_base.22" }
%"struct.std::_Vector_base.22" = type { %"struct.std::_Vector_base<llama_logit_bias, std::allocator<llama_logit_bias>>::_Vector_impl" }
%"struct.std::_Vector_base<llama_logit_bias, std::allocator<llama_logit_bias>>::_Vector_impl" = type { %"struct.std::_Vector_base<llama_logit_bias, std::allocator<llama_logit_bias>>::_Vector_impl_data" }
%"struct.std::_Vector_base<llama_logit_bias, std::allocator<llama_logit_bias>>::_Vector_impl_data" = type { ptr, ptr, ptr }
%struct.common_sampler = type { %struct.common_params_sampling, ptr, ptr, %struct.ring_buffer, %"class.std::vector.31", %struct.llama_token_data_array }
%struct.ring_buffer = type { i64, i64, i64, i64, %"class.std::vector.13" }
%"class.std::vector.31" = type { %"struct.std::_Vector_base.32" }
%"struct.std::_Vector_base.32" = type { %"struct.std::_Vector_base<llama_token_data, std::allocator<llama_token_data>>::_Vector_impl" }
%"struct.std::_Vector_base<llama_token_data, std::allocator<llama_token_data>>::_Vector_impl" = type { %"struct.std::_Vector_base<llama_token_data, std::allocator<llama_token_data>>::_Vector_impl_data" }
%"struct.std::_Vector_base<llama_token_data, std::allocator<llama_token_data>>::_Vector_impl_data" = type { ptr, ptr, ptr }
%struct.llama_token_data_array = type { ptr, i64, i64, i8 }
%struct.llama_token_data = type { i32, float, float }

@.str.2 = private unnamed_addr constant [117 x i8] c"generated/home/dtcxzyw/WorkSpace/Projects/compilers/llvm-opt-benchmark/bench/llama.cpp/llama.cpp/common/sampling.cpp\00", align 1
@.str.5 = private unnamed_addr constant [23 x i8] c"GGML_ASSERT(%s) failed\00", align 1
@.str.8 = private unnamed_addr constant [96 x i8] c"cur_p.selected != -1 && \22no selected token during sampling - check your sampling configuration\22\00", align 1
@.str.9 = private unnamed_addr constant [99 x i8] c"cur_p.selected != -1 && \22no selected token during re-sampling - check your sampling configuration\22\00", align 1

; Function Attrs: mustprogress uwtable
define noundef i32 @_Z21common_sampler_sampleP14common_samplerP13llama_contextib(ptr noundef %0, ptr noundef %1, i32 noundef %2, i1 noundef zeroext %3) #0 {
  %5 = alloca i32, align 4
  %6 = alloca ptr, align 8
  %7 = alloca ptr, align 8
  %8 = alloca i32, align 4
  %9 = alloca i8, align 1
  %10 = alloca ptr, align 8
  %11 = alloca ptr, align 8
  %12 = alloca ptr, align 8
  %13 = alloca i32, align 4
  %14 = alloca i32, align 4
  %15 = alloca %struct.llama_token_data, align 4
  %16 = alloca %struct.llama_token_data_array, align 8
  %17 = alloca i8, align 1
  store ptr %0, ptr %6, align 8, !tbaa !102
  store ptr %1, ptr %7, align 8, !tbaa !162
  store i32 %2, ptr %8, align 4, !tbaa !101
  %18 = zext i1 %3 to i8
  store i8 %18, ptr %9, align 1, !tbaa !99
  %19 = load ptr, ptr %6, align 8, !tbaa !102
  %20 = load ptr, ptr %7, align 8, !tbaa !162
  %21 = load i32, ptr %8, align 4, !tbaa !101
  call void @_ZN14common_sampler10set_logitsEP13llama_contexti(ptr noundef nonnull align 8 dereferenceable(440) %19, ptr noundef %20, i32 noundef %21)
  call void @llvm.lifetime.start.p0(i64 8, ptr %10) #15
  %22 = load ptr, ptr %6, align 8, !tbaa !102
  %23 = getelementptr inbounds nuw %struct.common_sampler, ptr %22, i32 0, i32 1
  store ptr %23, ptr %10, align 8, !tbaa !164
  call void @llvm.lifetime.start.p0(i64 8, ptr %11) #15
  %24 = load ptr, ptr %6, align 8, !tbaa !102
  %25 = getelementptr inbounds nuw %struct.common_sampler, ptr %24, i32 0, i32 2
  store ptr %25, ptr %11, align 8, !tbaa !164
  call void @llvm.lifetime.start.p0(i64 8, ptr %12) #15
  %26 = load ptr, ptr %6, align 8, !tbaa !102
  %27 = getelementptr inbounds nuw %struct.common_sampler, ptr %26, i32 0, i32 5
  store ptr %27, ptr %12, align 8, !tbaa !166
  %28 = load i8, ptr %9, align 1, !tbaa !99, !range !79, !noundef !80
  %29 = trunc i8 %28 to i1
  br i1 %29, label %30, label %34

30:                                               ; preds = %4
  %31 = load ptr, ptr %10, align 8, !tbaa !164
  %32 = load ptr, ptr %31, align 8, !tbaa !87
  %33 = load ptr, ptr %12, align 8, !tbaa !166
  call void @llama_sampler_apply(ptr noundef %32, ptr noundef %33)
  br label %34

34:                                               ; preds = %30, %4
  %35 = load ptr, ptr %11, align 8, !tbaa !164
  %36 = load ptr, ptr %35, align 8, !tbaa !87
  %37 = load ptr, ptr %12, align 8, !tbaa !166
  call void @llama_sampler_apply(ptr noundef %36, ptr noundef %37)
  %38 = load ptr, ptr %12, align 8, !tbaa !166
  %39 = getelementptr inbounds nuw %struct.llama_token_data_array, ptr %38, i32 0, i32 2
  %40 = load i64, ptr %39, align 8, !tbaa !168
  %41 = icmp ne i64 %40, -1
  br i1 %41, label %43, label %42

42:                                               ; preds = %34
  call void (ptr, i32, ptr, ...) @ggml_abort(ptr noundef @.str.2, i32 noundef 313, ptr noundef @.str.5, ptr noundef @.str.8) #16
  unreachable

43:                                               ; preds = %34
  call void @llvm.lifetime.start.p0(i64 4, ptr %13) #15
  %44 = load ptr, ptr %12, align 8, !tbaa !166
  %45 = getelementptr inbounds nuw %struct.llama_token_data_array, ptr %44, i32 0, i32 0
  %46 = load ptr, ptr %45, align 8, !tbaa !169
  %47 = load ptr, ptr %12, align 8, !tbaa !166
  %48 = getelementptr inbounds nuw %struct.llama_token_data_array, ptr %47, i32 0, i32 2
  %49 = load i64, ptr %48, align 8, !tbaa !168
  %50 = getelementptr inbounds %struct.llama_token_data, ptr %46, i64 %49
  %51 = getelementptr inbounds nuw %struct.llama_token_data, ptr %50, i32 0, i32 0
  %52 = load i32, ptr %51, align 4, !tbaa !170
  store i32 %52, ptr %13, align 4, !tbaa !101
  %53 = load i8, ptr %9, align 1, !tbaa !99, !range !79, !noundef !80
  %54 = trunc i8 %53 to i1
  br i1 %54, label %55, label %57

55:                                               ; preds = %43
  %56 = load i32, ptr %13, align 4, !tbaa !101
  store i32 %56, ptr %5, align 4
  store i32 1, ptr %14, align 4
  br label %107

57:                                               ; preds = %43
  call void @llvm.lifetime.start.p0(i64 12, ptr %15) #15
  %58 = getelementptr inbounds nuw %struct.llama_token_data, ptr %15, i32 0, i32 0
  %59 = load i32, ptr %13, align 4, !tbaa !101
  store i32 %59, ptr %58, align 4, !tbaa !170
  %60 = getelementptr inbounds nuw %struct.llama_token_data, ptr %15, i32 0, i32 1
  store float 1.000000e+00, ptr %60, align 4, !tbaa !172
  %61 = getelementptr inbounds nuw %struct.llama_token_data, ptr %15, i32 0, i32 2
  store float 0.000000e+00, ptr %61, align 4, !tbaa !173
  call void @llvm.lifetime.start.p0(i64 32, ptr %16) #15
  %62 = getelementptr inbounds nuw %struct.llama_token_data_array, ptr %16, i32 0, i32 0
  store ptr %15, ptr %62, align 8, !tbaa !169
  %63 = getelementptr inbounds nuw %struct.llama_token_data_array, ptr %16, i32 0, i32 1
  store i64 1, ptr %63, align 8, !tbaa !174
  %64 = getelementptr inbounds nuw %struct.llama_token_data_array, ptr %16, i32 0, i32 2
  store i64 -1, ptr %64, align 8, !tbaa !168
  %65 = getelementptr inbounds nuw %struct.llama_token_data_array, ptr %16, i32 0, i32 3
  store i8 0, ptr %65, align 8, !tbaa !175
  %66 = load ptr, ptr %10, align 8, !tbaa !164
  %67 = load ptr, ptr %66, align 8, !tbaa !87
  call void @llama_sampler_apply(ptr noundef %67, ptr noundef %16)
  call void @llvm.lifetime.start.p0(i64 1, ptr %17) #15
  %68 = getelementptr inbounds nuw %struct.llama_token_data_array, ptr %16, i32 0, i32 0
  %69 = load ptr, ptr %68, align 8, !tbaa !169
  %70 = getelementptr inbounds %struct.llama_token_data, ptr %69, i64 0
  %71 = getelementptr inbounds nuw %struct.llama_token_data, ptr %70, i32 0, i32 1
  %72 = load float, ptr %71, align 4, !tbaa !172
  %73 = fcmp une float %72, 0xFFF0000000000000
  %74 = zext i1 %73 to i8
  store i8 %74, ptr %17, align 1, !tbaa !99
  %75 = load i8, ptr %17, align 1, !tbaa !99, !range !79, !noundef !80
  %76 = trunc i8 %75 to i1
  br i1 %76, label %77, label %79

77:                                               ; preds = %57
  %78 = load i32, ptr %13, align 4, !tbaa !101
  store i32 %78, ptr %5, align 4
  store i32 1, ptr %14, align 4
  br label %80

79:                                               ; preds = %57
  store i32 0, ptr %14, align 4
  br label %80

80:                                               ; preds = %79, %77
  call void @llvm.lifetime.end.p0(i64 1, ptr %17) #15
  call void @llvm.lifetime.end.p0(i64 32, ptr %16) #15
  call void @llvm.lifetime.end.p0(i64 12, ptr %15) #15
  %81 = load i32, ptr %14, align 4
  switch i32 %81, label %107 [
    i32 0, label %82
  ]

82:                                               ; preds = %80
  %83 = load ptr, ptr %6, align 8, !tbaa !102
  %84 = load ptr, ptr %7, align 8, !tbaa !162
  %85 = load i32, ptr %8, align 4, !tbaa !101
  call void @_ZN14common_sampler10set_logitsEP13llama_contexti(ptr noundef nonnull align 8 dereferenceable(440) %83, ptr noundef %84, i32 noundef %85)
  %86 = load ptr, ptr %10, align 8, !tbaa !164
  %87 = load ptr, ptr %86, align 8, !tbaa !87
  %88 = load ptr, ptr %12, align 8, !tbaa !166
  call void @llama_sampler_apply(ptr noundef %87, ptr noundef %88)
  %89 = load ptr, ptr %11, align 8, !tbaa !164
  %90 = load ptr, ptr %89, align 8, !tbaa !87
  %91 = load ptr, ptr %12, align 8, !tbaa !166
  call void @llama_sampler_apply(ptr noundef %90, ptr noundef %91)
  %92 = load ptr, ptr %12, align 8, !tbaa !166
  %93 = getelementptr inbounds nuw %struct.llama_token_data_array, ptr %92, i32 0, i32 2
  %94 = load i64, ptr %93, align 8, !tbaa !168
  %95 = icmp ne i64 %94, -1
  br i1 %95, label %97, label %96

96:                                               ; preds = %82
  call void (ptr, i32, ptr, ...) @ggml_abort(ptr noundef @.str.2, i32 noundef 341, ptr noundef @.str.5, ptr noundef @.str.9) #16
  unreachable

97:                                               ; preds = %82
  %98 = load ptr, ptr %12, align 8, !tbaa !166
  %99 = getelementptr inbounds nuw %struct.llama_token_data_array, ptr %98, i32 0, i32 0
  %100 = load ptr, ptr %99, align 8, !tbaa !169
  %101 = load ptr, ptr %12, align 8, !tbaa !166
  %102 = getelementptr inbounds nuw %struct.llama_token_data_array, ptr %101, i32 0, i32 2
  %103 = load i64, ptr %102, align 8, !tbaa !168
  %104 = getelementptr inbounds %struct.llama_token_data, ptr %100, i64 %103
  %105 = getelementptr inbounds nuw %struct.llama_token_data, ptr %104, i32 0, i32 0
  %106 = load i32, ptr %105, align 4, !tbaa !170
  store i32 %106, ptr %5, align 4
  store i32 1, ptr %14, align 4
  br label %107

107:                                              ; preds = %97, %80, %55
  call void @llvm.lifetime.end.p0(i64 4, ptr %13) #15
  call void @llvm.lifetime.end.p0(i64 8, ptr %12) #15
  call void @llvm.lifetime.end.p0(i64 8, ptr %11) #15
  call void @llvm.lifetime.end.p0(i64 8, ptr %10) #15
  %108 = load i32, ptr %5, align 4
  ret i32 %108
}