; Function Attrs: mustprogress uwtable
define noundef i32 @_Z21common_sampler_sampleP14common_samplerP13llama_contextib(ptr noundef nonnull %0, ptr noundef %1, i32 noundef %2, i1 noundef zeroext %3) local_unnamed_addr #0 {
  %5 = alloca %struct.llama_token_data, align 4
  %6 = alloca %struct.llama_token_data_array, align 8
  tail call void @_ZN14common_sampler10set_logitsEP13llama_contexti(ptr noundef nonnull align 8 dereferenceable(440) %0, ptr noundef %1, i32 noundef %2)
  %7 = getelementptr inbounds nuw i8, ptr %0, i64 312
  %8 = getelementptr inbounds nuw i8, ptr %0, i64 320
  %9 = getelementptr inbounds nuw i8, ptr %0, i64 408
  br i1 %3, label %10, label %12

10:                                               ; preds = %4
  %11 = load ptr, ptr %7, align 8, !tbaa !140
  tail call void @llama_sampler_apply(ptr noundef %11, ptr noundef nonnull %9)
  br label %12

12:                                               ; preds = %10, %4
  %13 = load ptr, ptr %8, align 8, !tbaa !140
  tail call void @llama_sampler_apply(ptr noundef %13, ptr noundef nonnull %9)
  %14 = getelementptr inbounds nuw i8, ptr %0, i64 424
  %15 = load i64, ptr %14, align 8, !tbaa !141
  %.not = icmp eq i64 %15, -1
  br i1 %.not, label %16, label %17

16:                                               ; preds = %12
  tail call void (ptr, i32, ptr, ...) @ggml_abort(ptr noundef nonnull @.str.2, i32 noundef 313, ptr noundef nonnull @.str.5, ptr noundef nonnull @.str.8) #24
  unreachable

17:                                               ; preds = %12
  %18 = load ptr, ptr %9, align 8, !tbaa !142
  %19 = getelementptr inbounds %struct.llama_token_data, ptr %18, i64 %15
  %20 = load i32, ptr %19, align 4, !tbaa !143
  br i1 %3, label %41, label %21

21:                                               ; preds = %17
  call void @llvm.lifetime.start.p0(i64 12, ptr nonnull %5) #23
  store i32 %20, ptr %5, align 4, !tbaa !143
  %22 = getelementptr inbounds nuw i8, ptr %5, i64 4
  store float 1.000000e+00, ptr %22, align 4, !tbaa !145
  %23 = getelementptr inbounds nuw i8, ptr %5, i64 8
  store float 0.000000e+00, ptr %23, align 4, !tbaa !146
  call void @llvm.lifetime.start.p0(i64 32, ptr nonnull %6) #23
  store ptr %5, ptr %6, align 8, !tbaa !142
  %24 = getelementptr inbounds nuw i8, ptr %6, i64 8
  store i64 1, ptr %24, align 8, !tbaa !147
  %25 = getelementptr inbounds nuw i8, ptr %6, i64 16
  store i64 -1, ptr %25, align 8, !tbaa !141
  %26 = getelementptr inbounds nuw i8, ptr %6, i64 24
  store i8 0, ptr %26, align 8, !tbaa !148
  %27 = load ptr, ptr %7, align 8, !tbaa !140
  call void @llama_sampler_apply(ptr noundef %27, ptr noundef nonnull %6)
  %28 = load ptr, ptr %6, align 8, !tbaa !142
  %29 = getelementptr inbounds nuw i8, ptr %28, i64 4
  %30 = load float, ptr %29, align 4, !tbaa !145
  %31 = fcmp oeq float %30, 0xFFF0000000000000
  call void @llvm.lifetime.end.p0(i64 32, ptr nonnull %6) #23
  call void @llvm.lifetime.end.p0(i64 12, ptr nonnull %5) #23
  br i1 %31, label %32, label %41

32:                                               ; preds = %21
  call void @_ZN14common_sampler10set_logitsEP13llama_contexti(ptr noundef nonnull align 8 dereferenceable(440) %0, ptr noundef %1, i32 noundef %2)
  %33 = load ptr, ptr %7, align 8, !tbaa !140
  call void @llama_sampler_apply(ptr noundef %33, ptr noundef nonnull %9)
  %34 = load ptr, ptr %8, align 8, !tbaa !140
  call void @llama_sampler_apply(ptr noundef %34, ptr noundef nonnull %9)
  %35 = load i64, ptr %14, align 8, !tbaa !141
  %.not34 = icmp eq i64 %35, -1
  br i1 %.not34, label %36, label %37

36:                                               ; preds = %32
  call void (ptr, i32, ptr, ...) @ggml_abort(ptr noundef nonnull @.str.2, i32 noundef 341, ptr noundef nonnull @.str.5, ptr noundef nonnull @.str.9) #24
  unreachable

37:                                               ; preds = %32
  %38 = load ptr, ptr %9, align 8, !tbaa !142
  %39 = getelementptr inbounds %struct.llama_token_data, ptr %38, i64 %35
  %40 = load i32, ptr %39, align 4, !tbaa !143
  br label %41

41:                                               ; preds = %17, %21, %37
  %.0 = phi i32 [ %40, %37 ], [ %20, %21 ], [ %20, %17 ]
  ret i32 %.0
}